; Function Attrs: mustprogress nofree norecurse nosync nounwind willreturn memory(read, inaccessiblemem: none) uwtable
define hidden noundef range(i32 1, 5) i32 @_ZNK2cv17QRCodeEncoderImpl14autoEncodeModeERKNSt7__cxx1112basic_stringIcSt11char_traitsIcESaIcEEE(ptr noundef nonnull readnone align 8 captures(none) dereferenceable(384) %0, ptr noundef nonnull readonly align 8 captures(none) dereferenceable(32) %1) local_unnamed_addr #7 align 2 {
  %3 = getelementptr inbounds nuw i8, ptr %1, i64 8
  %4 = load i64, ptr %3, align 8, !tbaa !21
  %5 = icmp eq i64 %4, 0
  br i1 %5, label %_ZNK2cv17QRCodeEncoderImpl14isAlphaNumericERKNSt7__cxx1112basic_stringIcSt11char_traitsIcESaIcEEE.exit, label %.lr.ph.i

.lr.ph.i:                                         ; preds = %2
  %6 = load ptr, ptr %1, align 8, !tbaa !15
  br label %9

7:                                                ; preds = %9
  %8 = add nuw i64 %.0810.i, 1
  %exitcond.not.i = icmp eq i64 %8, %4
  br i1 %exitcond.not.i, label %_ZNK2cv17QRCodeEncoderImpl14isAlphaNumericERKNSt7__cxx1112basic_stringIcSt11char_traitsIcESaIcEEE.exit, label %9, !llvm.loop !56

9:                                                ; preds = %7, %.lr.ph.i
  %.0810.i = phi i64 [ 0, %.lr.ph.i ], [ %8, %7 ]
  %10 = getelementptr inbounds nuw i8, ptr %6, i64 %.0810.i
  %11 = load i8, ptr %10, align 1, !tbaa !57
  %12 = add i8 %11, -48
  %or.cond.i = icmp ult i8 %12, 10
  br i1 %or.cond.i, label %7, label %.lr.ph.i3

.lr.ph.i3:                                        ; preds = %9, %_ZN2cvL9mapSymbolEc.exit.thread.i
  %.0611.i = phi i64 [ %18, %_ZN2cvL9mapSymbolEc.exit.thread.i ], [ 0, %9 ]
  %13 = getelementptr inbounds nuw i8, ptr %6, i64 %.0611.i
  %14 = load i8, ptr %13, align 1, !tbaa !57
  %15 = add i8 %14, -48
  %or.cond.i.i = icmp ult i8 %15, 10
  %16 = add i8 %14, -65
  %or.cond5.i.i = icmp ult i8 %16, 26
  %or.cond.i4 = or i1 %or.cond.i.i, %or.cond5.i.i
  br i1 %or.cond.i4, label %_ZN2cvL9mapSymbolEc.exit.thread.i, label %17

17:                                               ; preds = %.lr.ph.i3
  switch i8 %14, label %_ZNK2cv17QRCodeEncoderImpl14isAlphaNumericERKNSt7__cxx1112basic_stringIcSt11char_traitsIcESaIcEEE.exit [
    i8 32, label %_ZN2cvL9mapSymbolEc.exit.thread.i
    i8 36, label %_ZN2cvL9mapSymbolEc.exit.thread.i
    i8 37, label %_ZN2cvL9mapSymbolEc.exit.thread.i
    i8 42, label %_ZN2cvL9mapSymbolEc.exit.thread.i
    i8 43, label %_ZN2cvL9mapSymbolEc.exit.thread.i
    i8 45, label %_ZN2cvL9mapSymbolEc.exit.thread.i
    i8 46, label %_ZN2cvL9mapSymbolEc.exit.thread.i
    i8 47, label %_ZN2cvL9mapSymbolEc.exit.thread.i
    i8 58, label %_ZN2cvL9mapSymbolEc.exit.thread.i
  ]

_ZN2cvL9mapSymbolEc.exit.thread.i:                ; preds = %17, %17, %17, %17, %17, %17, %17, %17, %17, %.lr.ph.i3
  %18 = add nuw i64 %.0611.i, 1
  %exitcond.not.i5 = icmp eq i64 %18, %4
  br i1 %exitcond.not.i5, label %_ZNK2cv17QRCodeEncoderImpl14isAlphaNumericERKNSt7__cxx1112basic_stringIcSt11char_traitsIcESaIcEEE.exit, label %.lr.ph.i3, !llvm.loop !58

_ZNK2cv17QRCodeEncoderImpl14isAlphaNumericERKNSt7__cxx1112basic_stringIcSt11char_traitsIcESaIcEEE.exit: ; preds = %7, %17, %_ZN2cvL9mapSymbolEc.exit.thread.i, %2
  %.0 = phi i32 [ 1, %2 ], [ 2, %_ZN2cvL9mapSymbolEc.exit.thread.i ], [ 4, %17 ], [ 1, %7 ]
  ret i32 %.0
}